; Function Attrs: nounwind uwtable
define noalias noundef ptr @Gia_ManCollectSuppNew(ptr noundef %0, i32 noundef %1, i32 noundef %2) local_unnamed_addr #0 {
  %4 = tail call noalias dereferenceable_or_null(16) ptr @malloc(i64 noundef 16) #25
  %5 = getelementptr inbounds nuw i8, ptr %4, i64 4
  store i32 0, ptr %5, align 4, !tbaa !13
  store i32 16, ptr %4, align 8, !tbaa !16
  %6 = tail call noalias dereferenceable_or_null(64) ptr @malloc(i64 noundef 64) #25
  %7 = getelementptr inbounds nuw i8, ptr %4, i64 8
  store ptr %6, ptr %7, align 8, !tbaa !17
  tail call void @Gia_ManIncrementTravId(ptr noundef %0) #24
  %8 = icmp sgt i32 %2, 0
  br i1 %8, label %.lr.ph.i, label %Gia_ManCollectSupp.exit

.lr.ph.i:                                         ; preds = %3
  %9 = getelementptr i8, ptr %0, i64 32
  %10 = getelementptr i8, ptr %0, i64 72
  %11 = sext i32 %1 to i64
  %wide.trip.count.i = zext nneg i32 %2 to i64
  br label %12

12:                                               ; preds = %12, %.lr.ph.i
  %indvars.iv.i = phi i64 [ 0, %.lr.ph.i ], [ %indvars.iv.next.i, %12 ]
  %.val.i = load ptr, ptr %9, align 8, !tbaa !46
  %.val10.i = load ptr, ptr %10, align 8, !tbaa !50
  %13 = getelementptr i8, ptr %.val10.i, i64 8
  %.val10.val.i = load ptr, ptr %13, align 8, !tbaa !17
  %14 = getelementptr i32, ptr %.val10.val.i, i64 %indvars.iv.i
  %15 = getelementptr i32, ptr %14, i64 %11
  %16 = load i32, ptr %15, align 4, !tbaa !12
  %17 = sext i32 %16 to i64
  %18 = getelementptr inbounds %struct.Gia_Obj_t_, ptr %.val.i, i64 %17
  %.val3.i.i = load i64, ptr %18, align 4
  %19 = trunc i64 %.val3.i.i to i32
  %20 = and i32 %19, 536870911
  %21 = sub nsw i32 %16, %20
  tail call void @Gia_ManCollectSupp_rec(ptr noundef %0, i32 noundef %21, ptr noundef nonnull %4)
  %indvars.iv.next.i = add nuw nsw i64 %indvars.iv.i, 1
  %exitcond.not.i = icmp eq i64 %indvars.iv.next.i, %wide.trip.count.i
  br i1 %exitcond.not.i, label %Gia_ManCollectSupp.exit, label %12, !llvm.loop !104

Gia_ManCollectSupp.exit:                          ; preds = %12, %3
  tail call void @Gia_ManPermuteSupp(ptr noundef %0, i32 noundef %1, i32 noundef %2, ptr noundef nonnull %4)
  ret ptr %4
}